; Function Attrs: mustprogress nofree norecurse nosync nounwind memory(readwrite, inaccessiblemem: none) uwtable
define hidden noundef i32 @_ZN2lp10hnf_cutter18find_cut_row_indexERK6vectorI8rationalLb1EjE(ptr nocapture noundef nonnull readonly align 8 dereferenceable(208) %this, ptr nocapture noundef nonnull readonly align 8 dereferenceable(8) %b) local_unnamed_addr #5 align 2 {
entry:
  %m_settings = getelementptr inbounds i8, ptr %this, i64 16
  br label %for.cond

for.cond:                                         ; preds = %for.inc, %entry
  %indvars.iv = phi i64 [ %indvars.iv.next, %for.inc ], [ 0, %entry ]
  %ret.0 = phi i32 [ %ret.1, %for.inc ], [ -1, %entry ]
  %n.0 = phi i32 [ %n.1, %for.inc ], [ 0, %entry ]
  %0 = load ptr, ptr %b, align 8
  %cmp.i = icmp eq ptr %0, null
  br i1 %cmp.i, label %_ZNK6vectorI8rationalLb1EjE4sizeEv.exit, label %if.end.i

if.end.i:                                         ; preds = %for.cond
  %arrayidx.i = getelementptr inbounds i8, ptr %0, i64 -4
  %1 = load i32, ptr %arrayidx.i, align 4
  br label %_ZNK6vectorI8rationalLb1EjE4sizeEv.exit

_ZNK6vectorI8rationalLb1EjE4sizeEv.exit:          ; preds = %for.cond, %if.end.i
  %retval.0.i = phi i32 [ %1, %if.end.i ], [ 0, %for.cond ]
  %2 = sext i32 %retval.0.i to i64
  %cmp = icmp slt i64 %indvars.iv, %2
  br i1 %cmp, label %for.body, label %for.end

for.body:                                         ; preds = %_ZNK6vectorI8rationalLb1EjE4sizeEv.exit
  %arrayidx.i7 = getelementptr inbounds %class.rational, ptr %0, i64 %indvars.iv
  %m_den.i.i.i.i = getelementptr inbounds i8, ptr %arrayidx.i7, i64 16
  %m_kind.i.i.i.i.i.i.i = getelementptr inbounds i8, ptr %arrayidx.i7, i64 20
  %bf.load.i.i.i.i.i.i.i = load i8, ptr %m_kind.i.i.i.i.i.i.i, align 4
  %bf.clear.i.i.i.i.i.i.i = and i8 %bf.load.i.i.i.i.i.i.i, 1
  %cmp.i.i.i.i.i.i.i = icmp eq i8 %bf.clear.i.i.i.i.i.i.i, 0
  %3 = load i32, ptr %m_den.i.i.i.i, align 8
  %cmp.i.i.i.i.i.i = icmp eq i32 %3, 1
  %4 = select i1 %cmp.i.i.i.i.i.i.i, i1 %cmp.i.i.i.i.i.i, i1 false
  br i1 %4, label %for.inc, label %if.end

if.end:                                           ; preds = %for.body
  %cmp4 = icmp eq i32 %n.0, 0
  %5 = trunc i64 %indvars.iv to i32
  br i1 %cmp4, label %for.inc, label %if.else

if.else:                                          ; preds = %if.end
  %6 = load ptr, ptr %m_settings, align 8
  %m_rand.i = getelementptr inbounds i8, ptr %6, i64 188
  %7 = load i32, ptr %m_rand.i, align 4
  %mul.i.i = mul i32 %7, 214013
  %add.i.i = add i32 %mul.i.i, 2531011
  store i32 %add.i.i, ptr %m_rand.i, align 4
  %shr.i.i = lshr i32 %add.i.i, 16
  %and.i.i = and i32 %shr.i.i, 32767
  %inc = add nsw i32 %n.0, 1
  %rem = urem i32 %and.i.i, %inc
  %cmp7 = icmp eq i32 %rem, 0
  %spec.select = select i1 %cmp7, i32 %5, i32 %ret.0
  br label %for.inc

for.inc:                                          ; preds = %if.else, %if.end, %for.body
  %ret.1 = phi i32 [ %ret.0, %for.body ], [ %5, %if.end ], [ %spec.select, %if.else ]
  %n.1 = phi i32 [ %n.0, %for.body ], [ 1, %if.end ], [ %inc, %if.else ]
  %indvars.iv.next = add nuw nsw i64 %indvars.iv, 1
  br label %for.cond, !llvm.loop !46

for.end:                                          ; preds = %_ZNK6vectorI8rationalLb1EjE4sizeEv.exit
  ret i32 %ret.0
}